target datalayout = "e-m:e-p270:32:32-p271:32:32-p272:64:64-i64:64-i128:128-f80:128-n8:16:32:64-S128"
target triple = "x86_64-pc-linux-gnu"

%"class.std::vector" = type { %"struct.std::_Vector_base" }
%"struct.std::_Vector_base" = type { %"struct.std::_Vector_base<std::__cxx11::basic_string<char>, std::allocator<std::__cxx11::basic_string<char>>>::_Vector_impl" }
%"struct.std::_Vector_base<std::__cxx11::basic_string<char>, std::allocator<std::__cxx11::basic_string<char>>>::_Vector_impl" = type { %"struct.std::_Vector_base<std::__cxx11::basic_string<char>, std::allocator<std::__cxx11::basic_string<char>>>::_Vector_impl_data" }
%"struct.std::_Vector_base<std::__cxx11::basic_string<char>, std::allocator<std::__cxx11::basic_string<char>>>::_Vector_impl_data" = type { ptr, ptr, ptr }
%"class.colvar::cvc" = type { %class.colvarparse, %class.colvardeps, %"class.std::__cxx11::basic_string", %"class.std::__cxx11::basic_string", double, i32, double, double, %"class.std::vector.54", i8, %"class.std::vector", %class.colvarvalue, %class.colvarvalue, %class.colvarvalue, %class.colvarvalue, %class.colvarvalue, %class.colvarvalue, double }
%class.colvarparse = type { %class.colvarparams, %"class.std::__cxx11::basic_string", %"class.std::__cxx11::basic_string", %"class.std::__cxx11::list", %"class.std::map.34", %"class.std::__cxx11::list.39", %"class.std::__cxx11::list.39", %"class.std::__cxx11::basic_string" }
%class.colvarparams = type { ptr, %"class.std::map", %"class.std::map.23" }
%"class.std::map" = type { %"class.std::_Rb_tree" }
%"class.std::_Rb_tree" = type { %"struct.std::_Rb_tree<std::__cxx11::basic_string<char>, std::pair<const std::__cxx11::basic_string<char>, const void *>, std::_Select1st<std::pair<const std::__cxx11::basic_string<char>, const void *>>, std::less<std::__cxx11::basic_string<char>>>::_Rb_tree_impl" }
%"struct.std::_Rb_tree<std::__cxx11::basic_string<char>, std::pair<const std::__cxx11::basic_string<char>, const void *>, std::_Select1st<std::pair<const std::__cxx11::basic_string<char>, const void *>>, std::less<std::__cxx11::basic_string<char>>>::_Rb_tree_impl" = type { [8 x i8], %"struct.std::_Rb_tree_header" }
%"struct.std::_Rb_tree_header" = type { %"struct.std::_Rb_tree_node_base", i64 }
%"struct.std::_Rb_tree_node_base" = type { i32, ptr, ptr, ptr }
%"class.std::map.23" = type { %"class.std::_Rb_tree.24" }
%"class.std::_Rb_tree.24" = type { %"struct.std::_Rb_tree<std::__cxx11::basic_string<char>, std::pair<const std::__cxx11::basic_string<char>, const colvarvalue *>, std::_Select1st<std::pair<const std::__cxx11::basic_string<char>, const colvarvalue *>>, std::less<std::__cxx11::basic_string<char>>>::_Rb_tree_impl" }
%"struct.std::_Rb_tree<std::__cxx11::basic_string<char>, std::pair<const std::__cxx11::basic_string<char>, const colvarvalue *>, std::_Select1st<std::pair<const std::__cxx11::basic_string<char>, const colvarvalue *>>, std::less<std::__cxx11::basic_string<char>>>::_Rb_tree_impl" = type { [8 x i8], %"struct.std::_Rb_tree_header" }
%"class.std::__cxx11::list" = type { %"class.std::__cxx11::_List_base" }
%"class.std::__cxx11::_List_base" = type { %"struct.std::__cxx11::_List_base<std::__cxx11::basic_string<char>, std::allocator<std::__cxx11::basic_string<char>>>::_List_impl" }
%"struct.std::__cxx11::_List_base<std::__cxx11::basic_string<char>, std::allocator<std::__cxx11::basic_string<char>>>::_List_impl" = type { %"struct.std::__detail::_List_node_header" }
%"struct.std::__detail::_List_node_header" = type { %"struct.std::__detail::_List_node_base", i64 }
%"struct.std::__detail::_List_node_base" = type { ptr, ptr }
%"class.std::map.34" = type { %"class.std::_Rb_tree.35" }
%"class.std::_Rb_tree.35" = type { %"struct.std::_Rb_tree<std::__cxx11::basic_string<char>, std::pair<const std::__cxx11::basic_string<char>, colvarparse::key_set_mode>, std::_Select1st<std::pair<const std::__cxx11::basic_string<char>, colvarparse::key_set_mode>>, std::less<std::__cxx11::basic_string<char>>>::_Rb_tree_impl" }
%"struct.std::_Rb_tree<std::__cxx11::basic_string<char>, std::pair<const std::__cxx11::basic_string<char>, colvarparse::key_set_mode>, std::_Select1st<std::pair<const std::__cxx11::basic_string<char>, colvarparse::key_set_mode>>, std::less<std::__cxx11::basic_string<char>>>::_Rb_tree_impl" = type { [8 x i8], %"struct.std::_Rb_tree_header" }
%"class.std::__cxx11::list.39" = type { %"class.std::__cxx11::_List_base.40" }
%"class.std::__cxx11::_List_base.40" = type { %"struct.std::__cxx11::_List_base<unsigned long, std::allocator<unsigned long>>::_List_impl" }
%"struct.std::__cxx11::_List_base<unsigned long, std::allocator<unsigned long>>::_List_impl" = type { %"struct.std::__detail::_List_node_header" }
%class.colvardeps = type { ptr, %"class.std::__cxx11::basic_string", i32, %"class.std::vector.44", %"class.std::vector.49", %"class.std::vector.49" }
%"class.std::vector.44" = type { %"struct.std::_Vector_base.45" }
%"struct.std::_Vector_base.45" = type { %"struct.std::_Vector_base<colvardeps::feature_state, std::allocator<colvardeps::feature_state>>::_Vector_impl" }
%"struct.std::_Vector_base<colvardeps::feature_state, std::allocator<colvardeps::feature_state>>::_Vector_impl" = type { %"struct.std::_Vector_base<colvardeps::feature_state, std::allocator<colvardeps::feature_state>>::_Vector_impl_data" }
%"struct.std::_Vector_base<colvardeps::feature_state, std::allocator<colvardeps::feature_state>>::_Vector_impl_data" = type { ptr, ptr, ptr }
%"class.std::vector.49" = type { %"struct.std::_Vector_base.50" }
%"struct.std::_Vector_base.50" = type { %"struct.std::_Vector_base<colvardeps *, std::allocator<colvardeps *>>::_Vector_impl" }
%"struct.std::_Vector_base<colvardeps *, std::allocator<colvardeps *>>::_Vector_impl" = type { %"struct.std::_Vector_base<colvardeps *, std::allocator<colvardeps *>>::_Vector_impl_data" }
%"struct.std::_Vector_base<colvardeps *, std::allocator<colvardeps *>>::_Vector_impl_data" = type { ptr, ptr, ptr }
%"class.std::__cxx11::basic_string" = type { %"struct.std::__cxx11::basic_string<char>::_Alloc_hider", i64, %union.anon }
%"struct.std::__cxx11::basic_string<char>::_Alloc_hider" = type { ptr }
%union.anon = type { i64, [8 x i8] }
%"class.std::vector.54" = type { %"struct.std::_Vector_base.55" }
%"struct.std::_Vector_base.55" = type { %"struct.std::_Vector_base<colvarmodule::atom_group *, std::allocator<colvarmodule::atom_group *>>::_Vector_impl" }
%"struct.std::_Vector_base<colvarmodule::atom_group *, std::allocator<colvarmodule::atom_group *>>::_Vector_impl" = type { %"struct.std::_Vector_base<colvarmodule::atom_group *, std::allocator<colvarmodule::atom_group *>>::_Vector_impl_data" }
%"struct.std::_Vector_base<colvarmodule::atom_group *, std::allocator<colvarmodule::atom_group *>>::_Vector_impl_data" = type { ptr, ptr, ptr }
%class.colvarvalue = type { i32, double, %"class.colvarmodule::rvector", %"class.colvarmodule::quaternion", %"class.colvarmodule::vector1d", %"class.std::vector.10", %"class.std::vector.15", %"class.std::vector.15" }
%"class.colvarmodule::rvector" = type { double, double, double }
%"class.colvarmodule::quaternion" = type { double, double, double, double }
%"class.colvarmodule::vector1d" = type { %"class.std::vector.5" }
%"class.std::vector.5" = type { %"struct.std::_Vector_base.6" }
%"struct.std::_Vector_base.6" = type { %"struct.std::_Vector_base<double, std::allocator<double>>::_Vector_impl" }
%"struct.std::_Vector_base<double, std::allocator<double>>::_Vector_impl" = type { %"struct.std::_Vector_base<double, std::allocator<double>>::_Vector_impl_data" }
%"struct.std::_Vector_base<double, std::allocator<double>>::_Vector_impl_data" = type { ptr, ptr, ptr }
%"class.std::vector.10" = type { %"struct.std::_Vector_base.11" }
%"struct.std::_Vector_base.11" = type { %"struct.std::_Vector_base<colvarvalue::Type, std::allocator<colvarvalue::Type>>::_Vector_impl" }
%"struct.std::_Vector_base<colvarvalue::Type, std::allocator<colvarvalue::Type>>::_Vector_impl" = type { %"struct.std::_Vector_base<colvarvalue::Type, std::allocator<colvarvalue::Type>>::_Vector_impl_data" }
%"struct.std::_Vector_base<colvarvalue::Type, std::allocator<colvarvalue::Type>>::_Vector_impl_data" = type { ptr, ptr, ptr }
%"class.std::vector.15" = type { %"struct.std::_Vector_base.16" }
%"struct.std::_Vector_base.16" = type { %"struct.std::_Vector_base<int, std::allocator<int>>::_Vector_impl" }
%"struct.std::_Vector_base<int, std::allocator<int>>::_Vector_impl" = type { %"struct.std::_Vector_base<int, std::allocator<int>>::_Vector_impl_data" }
%"struct.std::_Vector_base<int, std::allocator<int>>::_Vector_impl_data" = type { ptr, ptr, ptr }
%"class.colvar::polar_theta" = type { %"class.colvar::cvc", ptr, double, double, double }
%"class.colvarmodule::atom_group" = type { %class.colvarparse, %class.colvardeps, %"class.std::__cxx11::basic_string", %"class.std::__cxx11::basic_string", %"class.std::vector.59", %"class.std::vector.15", %"class.std::vector.15", %"class.std::vector.15", %"class.colvarmodule::rvector", i32, %"class.std::vector.64", i8, %"class.colvarmodule::rotation", ptr, i8, %"class.std::vector.64", %"class.colvarmodule::rvector", ptr, double, double, i8, %"class.colvarmodule::rvector", %"class.colvarmodule::rvector", %"class.std::vector.64", %"class.colvarmodule::rvector", %"class.colvarmodule::rvector", %"class.colvarmodule::rvector", %"class.std::vector.64" }
%"class.std::vector.59" = type { %"struct.std::_Vector_base.60" }
%"struct.std::_Vector_base.60" = type { %"struct.std::_Vector_base<colvarmodule::atom, std::allocator<colvarmodule::atom>>::_Vector_impl" }
%"struct.std::_Vector_base<colvarmodule::atom, std::allocator<colvarmodule::atom>>::_Vector_impl" = type { %"struct.std::_Vector_base<colvarmodule::atom, std::allocator<colvarmodule::atom>>::_Vector_impl_data" }
%"struct.std::_Vector_base<colvarmodule::atom, std::allocator<colvarmodule::atom>>::_Vector_impl_data" = type { ptr, ptr, ptr }
%"class.colvarmodule::rotation" = type { %"class.colvarmodule::rmatrix", [4 x [4 x double]], [4 x double], [4 x [4 x double]], [4 x [4 x double]], i8, %"class.colvarmodule::quaternion", %"class.colvarmodule::quaternion", ptr }
%"class.colvarmodule::rmatrix" = type { double, double, double, double, double, double, double, double, double }
%"class.std::vector.64" = type { %"struct.std::_Vector_base.65" }
%"struct.std::_Vector_base.65" = type { %"struct.std::_Vector_base<colvarmodule::rvector, std::allocator<colvarmodule::rvector>>::_Vector_impl" }
%"struct.std::_Vector_base<colvarmodule::rvector, std::allocator<colvarmodule::rvector>>::_Vector_impl" = type { %"struct.std::_Vector_base<colvarmodule::rvector, std::allocator<colvarmodule::rvector>>::_Vector_impl_data" }
%"struct.std::_Vector_base<colvarmodule::rvector, std::allocator<colvarmodule::rvector>>::_Vector_impl_data" = type { ptr, ptr, ptr }

; Function Attrs: inlinehint mustprogress nounwind uwtable
define linkonce_odr noundef double @_ZN12colvarmodule4sqrtERKd(ptr noundef nonnull align 8 dereferenceable(8) %0) #8 comdat align 2 {
  %2 = alloca ptr, align 8
  store ptr %0, ptr %2, align 8, !tbaa !214
  %3 = load ptr, ptr %2, align 8, !tbaa !214
  %4 = load double, ptr %3, align 8, !tbaa !95
  %5 = call double @sqrt(double noundef %4) #17, !tbaa !11
  ret double %5
}

; Function Attrs: inlinehint mustprogress nounwind uwtable
define linkonce_odr noundef double @_ZNK12colvarmodule7rvector5norm2Ev(ptr noundef nonnull align 8 dereferenceable(24) %0) #8 comdat align 2 {
  %2 = alloca ptr, align 8
  store ptr %0, ptr %2, align 8, !tbaa !169
  %3 = load ptr, ptr %2, align 8
  %4 = getelementptr inbounds nuw %"class.colvarmodule::rvector", ptr %3, i32 0, i32 0
  %5 = load double, ptr %4, align 8, !tbaa !159
  %6 = getelementptr inbounds nuw %"class.colvarmodule::rvector", ptr %3, i32 0, i32 0
  %7 = load double, ptr %6, align 8, !tbaa !159
  %8 = getelementptr inbounds nuw %"class.colvarmodule::rvector", ptr %3, i32 0, i32 1
  %9 = load double, ptr %8, align 8, !tbaa !161
  %10 = getelementptr inbounds nuw %"class.colvarmodule::rvector", ptr %3, i32 0, i32 1
  %11 = load double, ptr %10, align 8, !tbaa !161
  %12 = fmul double %9, %11
  %13 = call double @llvm.fmuladd.f64(double %5, double %7, double %12)
  %14 = getelementptr inbounds nuw %"class.colvarmodule::rvector", ptr %3, i32 0, i32 2
  %15 = load double, ptr %14, align 8, !tbaa !94
  %16 = getelementptr inbounds nuw %"class.colvarmodule::rvector", ptr %3, i32 0, i32 2
  %17 = load double, ptr %16, align 8, !tbaa !94
  %18 = call double @llvm.fmuladd.f64(double %15, double %17, double %13)
  ret double %18
}

; Function Attrs: inlinehint mustprogress nounwind uwtable
define linkonce_odr noundef double @_ZN12colvarmodule5atan2ERKdS1_(ptr noundef nonnull align 8 dereferenceable(8) %0, ptr noundef nonnull align 8 dereferenceable(8) %1) #8 comdat align 2 {
  %3 = alloca ptr, align 8
  %4 = alloca ptr, align 8
  store ptr %0, ptr %3, align 8, !tbaa !214
  store ptr %1, ptr %4, align 8, !tbaa !214
  %5 = load ptr, ptr %3, align 8, !tbaa !214
  %6 = load double, ptr %5, align 8, !tbaa !95
  %7 = load ptr, ptr %4, align 8, !tbaa !214
  %8 = load double, ptr %7, align 8, !tbaa !95
  %9 = call double @atan2(double noundef %6, double noundef %8) #17, !tbaa !11
  ret double %9
}

; Function Attrs: inlinehint mustprogress nounwind uwtable
define linkonce_odr noundef double @_ZN12colvarmodule4acosERKd(ptr noundef nonnull align 8 dereferenceable(8) %0) #8 comdat align 2 {
  %2 = alloca ptr, align 8
  store ptr %0, ptr %2, align 8, !tbaa !214
  %3 = load ptr, ptr %2, align 8, !tbaa !214
  %4 = load double, ptr %3, align 8, !tbaa !95
  %5 = call double @acos(double noundef %4) #17, !tbaa !11
  ret double %5
}

; Function Attrs: inlinehint mustprogress uwtable
define linkonce_odr noundef double @_ZNK12colvarmodule7rvector4normEv(ptr noundef nonnull align 8 dereferenceable(24) %0) #6 comdat align 2 {
  %2 = alloca ptr, align 8
  %3 = alloca double, align 8
  store ptr %0, ptr %2, align 8, !tbaa !169
  %4 = load ptr, ptr %2, align 8
  call void @llvm.lifetime.start.p0(i64 8, ptr %3) #17
  %5 = call noundef double @_ZNK12colvarmodule7rvector5norm2Ev(ptr noundef nonnull align 8 dereferenceable(24) %4)
  store double %5, ptr %3, align 8, !tbaa !95
  %6 = call noundef double @_ZN12colvarmodule4sqrtERKd(ptr noundef nonnull align 8 dereferenceable(8) %3)
  call void @llvm.lifetime.end.p0(i64 8, ptr %3) #17
  ret double %6
}

; Function Attrs: inlinehint mustprogress nounwind uwtable
define linkonce_odr void @_ZNK12colvarmodule10atom_group14center_of_massEv(ptr dead_on_unwind noalias writable sret(%"class.colvarmodule::rvector") align 8 %0, ptr noundef nonnull align 8 dereferenceable(1496) %1) #8 comdat align 2 {
  %3 = alloca ptr, align 8
  store ptr %1, ptr %3, align 8, !tbaa !209
  %4 = load ptr, ptr %3, align 8
  %5 = getelementptr inbounds nuw %"class.colvarmodule::atom_group", ptr %4, i32 0, i32 24
  call void @llvm.memcpy.p0.p0.i64(ptr align 8 %0, ptr align 8 %5, i64 24, i1 false), !tbaa.struct !114
  ret void
}

; Function Attrs: mustprogress uwtable
define void @_ZN6colvar11polar_theta10calc_valueEv(ptr noundef nonnull align 8 dereferenceable(1640) %0) unnamed_addr #2 align 2 {
  %2 = alloca ptr, align 8
  %3 = alloca %"class.colvarmodule::rvector", align 8
  %4 = alloca %"class.colvarmodule::rvector", align 8
  %5 = alloca double, align 8
  store ptr %0, ptr %2, align 8, !tbaa !101
  %6 = load ptr, ptr %2, align 8
  call void @llvm.lifetime.start.p0(i64 24, ptr %3) #17
  %7 = getelementptr inbounds nuw %"class.colvar::polar_theta", ptr %6, i32 0, i32 1
  %8 = load ptr, ptr %7, align 8, !tbaa !103
  call void @_ZNK12colvarmodule10atom_group14center_of_massEv(ptr dead_on_unwind writable sret(%"class.colvarmodule::rvector") align 8 %3, ptr noundef nonnull align 8 dereferenceable(1496) %8)
  call void @llvm.lifetime.start.p0(i64 24, ptr %4) #17
  %9 = getelementptr inbounds nuw %"class.colvar::polar_theta", ptr %6, i32 0, i32 1
  %10 = load ptr, ptr %9, align 8, !tbaa !103
  call void @_ZNK12colvarmodule10atom_group14center_of_massEv(ptr dead_on_unwind writable sret(%"class.colvarmodule::rvector") align 8 %4, ptr noundef nonnull align 8 dereferenceable(1496) %10)
  %11 = call noundef double @_ZNK12colvarmodule7rvector4normEv(ptr noundef nonnull align 8 dereferenceable(24) %4)
  %12 = getelementptr inbounds nuw %"class.colvar::polar_theta", ptr %6, i32 0, i32 2
  store double %11, ptr %12, align 8, !tbaa !105
  call void @llvm.lifetime.end.p0(i64 24, ptr %4) #17
  %13 = getelementptr inbounds nuw %"class.colvar::polar_theta", ptr %6, i32 0, i32 2
  %14 = load double, ptr %13, align 8, !tbaa !105
  %15 = fcmp ogt double %14, 0.000000e+00
  call void @llvm.lifetime.start.p0(i64 8, ptr %5) #17
  br i1 %15, label %16, label %23

16:                                               ; preds = %1
  %17 = getelementptr inbounds nuw %"class.colvarmodule::rvector", ptr %3, i32 0, i32 2
  %18 = load double, ptr %17, align 8, !tbaa !94
  %19 = getelementptr inbounds nuw %"class.colvar::polar_theta", ptr %6, i32 0, i32 2
  %20 = load double, ptr %19, align 8, !tbaa !105
  %21 = fdiv double %18, %20
  store double %21, ptr %5, align 8, !tbaa !95
  %22 = call noundef double @_ZN12colvarmodule4acosERKd(ptr noundef nonnull align 8 dereferenceable(8) %5)
  br label %24

23:                                               ; preds = %1
  br label %24

24:                                               ; preds = %23, %16
  %25 = phi double [ %22, %16 ], [ 0.000000e+00, %23 ]
  %26 = getelementptr inbounds nuw %"class.colvar::polar_theta", ptr %6, i32 0, i32 3
  store double %25, ptr %26, align 8, !tbaa !106
  call void @llvm.lifetime.end.p0(i64 8, ptr %5) #17
  %27 = getelementptr inbounds nuw %"class.colvarmodule::rvector", ptr %3, i32 0, i32 1
  %28 = getelementptr inbounds nuw %"class.colvarmodule::rvector", ptr %3, i32 0, i32 0
  %29 = call noundef double @_ZN12colvarmodule5atan2ERKdS1_(ptr noundef nonnull align 8 dereferenceable(8) %27, ptr noundef nonnull align 8 dereferenceable(8) %28)
  %30 = getelementptr inbounds nuw %"class.colvar::polar_theta", ptr %6, i32 0, i32 4
  store double %29, ptr %30, align 8, !tbaa !107
  %31 = getelementptr inbounds nuw %"class.colvar::polar_theta", ptr %6, i32 0, i32 3
  %32 = load double, ptr %31, align 8, !tbaa !106
  %33 = fmul double 0x404CA5DC1A63C1F8, %32
  %34 = getelementptr inbounds nuw %"class.colvar::cvc", ptr %6, i32 0, i32 11
  %35 = getelementptr inbounds nuw %class.colvarvalue, ptr %34, i32 0, i32 1
  store double %33, ptr %35, align 8, !tbaa !98
  call void @llvm.lifetime.end.p0(i64 24, ptr %3) #17
  ret void
}