; Function Attrs: mustprogress nofree nounwind willreturn memory(readwrite, inaccessiblemem: write) uwtable
define void @_ZN6colvar11polar_theta10calc_valueEv(ptr noundef nonnull align 8 captures(none) dereferenceable(1640) initializes((600, 608), (1616, 1640)) %0) unnamed_addr #3 align 2 {
  %2 = getelementptr inbounds nuw i8, ptr %0, i64 1608
  %3 = load ptr, ptr %2, align 8, !tbaa !96
  %4 = getelementptr inbounds nuw i8, ptr %3, i64 1400
  %.sroa.01.0.copyload = load double, ptr %4, align 8, !tbaa !87
  %.sroa.42.0..sroa_idx = getelementptr inbounds nuw i8, ptr %3, i64 1408
  %.sroa.42.0.copyload = load double, ptr %.sroa.42.0..sroa_idx, align 8, !tbaa !87
  %.sroa.53.0..sroa_idx = getelementptr inbounds nuw i8, ptr %3, i64 1416
  %.sroa.53.0.copyload = load double, ptr %.sroa.53.0..sroa_idx, align 8, !tbaa !87
  %5 = fmul double %.sroa.42.0.copyload, %.sroa.42.0.copyload
  %6 = tail call double @llvm.fmuladd.f64(double %.sroa.01.0.copyload, double %.sroa.01.0.copyload, double %5)
  %7 = tail call noundef double @llvm.fmuladd.f64(double %.sroa.53.0.copyload, double %.sroa.53.0.copyload, double %6)
  %sqrt.i = tail call noundef double @llvm.sqrt.f64(double %7)
  %8 = getelementptr inbounds nuw i8, ptr %0, i64 1616
  store double %sqrt.i, ptr %8, align 8, !tbaa !98
  %9 = fcmp ogt double %7, 0.000000e+00
  br i1 %9, label %10, label %13

10:                                               ; preds = %1
  %11 = fdiv double %.sroa.53.0.copyload, %sqrt.i
  %12 = tail call noundef double @acos(double noundef %11) #24, !tbaa !89
  br label %13

13:                                               ; preds = %1, %10
  %14 = phi double [ %12, %10 ], [ 0.000000e+00, %1 ]
  %15 = getelementptr inbounds nuw i8, ptr %0, i64 1624
  store double %14, ptr %15, align 8, !tbaa !99
  %16 = tail call noundef double @atan2(double noundef %.sroa.42.0.copyload, double noundef %.sroa.01.0.copyload) #24, !tbaa !89
  %17 = getelementptr inbounds nuw i8, ptr %0, i64 1632
  store double %16, ptr %17, align 8, !tbaa !100
  %18 = fmul double %14, 0x404CA5DC1A63C1F8
  %19 = getelementptr inbounds nuw i8, ptr %0, i64 600
  store double %18, ptr %19, align 8, !tbaa !92
  ret void
}